target datalayout = "e-m:e-p270:32:32-p271:32:32-p272:64:64-i64:64-i128:128-f80:128-n8:16:32:64-S128"
target triple = "x86_64-pc-linux-gnu"

@.str.8 = private unnamed_addr constant [22 x i8] c"position out of range\00", align 1
@.str.9 = private unnamed_addr constant [40 x i8] c"initial position is a continuation byte\00", align 1

; Function Attrs: mustprogress nounwind uwtable
define internal noundef i32 @_ZL10u_posrelatim(i32 noundef %0, i64 noundef %1) #3 {
  %3 = alloca i32, align 4
  %4 = alloca i32, align 4
  %5 = alloca i64, align 8
  store i32 %0, ptr %4, align 4, !tbaa !11
  store i64 %1, ptr %5, align 8, !tbaa !13
  %6 = load i32, ptr %4, align 4, !tbaa !11
  %7 = icmp sge i32 %6, 0
  br i1 %7, label %8, label %10

8:                                                ; preds = %2
  %9 = load i32, ptr %4, align 4, !tbaa !11
  store i32 %9, ptr %3, align 4
  br label %23

10:                                               ; preds = %2
  %11 = load i32, ptr %4, align 4, !tbaa !11
  %12 = sext i32 %11 to i64
  %13 = sub i64 0, %12
  %14 = load i64, ptr %5, align 8, !tbaa !13
  %15 = icmp ugt i64 %13, %14
  br i1 %15, label %16, label %17

16:                                               ; preds = %10
  store i32 0, ptr %3, align 4
  br label %23

17:                                               ; preds = %10
  %18 = load i64, ptr %5, align 8, !tbaa !13
  %19 = trunc i64 %18 to i32
  %20 = load i32, ptr %4, align 4, !tbaa !11
  %21 = add nsw i32 %19, %20
  %22 = add nsw i32 %21, 1
  store i32 %22, ptr %3, align 4
  br label %23

23:                                               ; preds = %17, %16, %8
  %24 = load i32, ptr %3, align 4
  ret i32 %24
}

; Function Attrs: mustprogress uwtable
define internal noundef i32 @_ZL10byteoffsetP9lua_State(ptr noundef %0) #0 {
  %2 = alloca ptr, align 8
  %3 = alloca i64, align 8
  %4 = alloca ptr, align 8
  %5 = alloca i32, align 4
  %6 = alloca i32, align 4
  store ptr %0, ptr %2, align 8, !tbaa !4
  call void @llvm.lifetime.start.p0(i64 8, ptr %3) #5
  call void @llvm.lifetime.start.p0(i64 8, ptr %4) #5
  %7 = load ptr, ptr %2, align 8, !tbaa !4
  %8 = call noundef ptr @_Z17luaL_checklstringP9lua_StateiPm(ptr noundef %7, i32 noundef 1, ptr noundef %3)
  store ptr %8, ptr %4, align 8, !tbaa !9
  call void @llvm.lifetime.start.p0(i64 4, ptr %5) #5
  %9 = load ptr, ptr %2, align 8, !tbaa !4
  %10 = call noundef i32 @_Z17luaL_checkintegerP9lua_Statei(ptr noundef %9, i32 noundef 2)
  store i32 %10, ptr %5, align 4, !tbaa !11
  call void @llvm.lifetime.start.p0(i64 4, ptr %6) #5
  %11 = load i32, ptr %5, align 4, !tbaa !11
  %12 = icmp sge i32 %11, 0
  br i1 %12, label %13, label %14

13:                                               ; preds = %1
  br label %18

14:                                               ; preds = %1
  %15 = load i64, ptr %3, align 8, !tbaa !13
  %16 = trunc i64 %15 to i32
  %17 = add nsw i32 %16, 1
  br label %18

18:                                               ; preds = %14, %13
  %19 = phi i32 [ 1, %13 ], [ %17, %14 ]
  store i32 %19, ptr %6, align 4, !tbaa !11
  %20 = load ptr, ptr %2, align 8, !tbaa !4
  %21 = load i32, ptr %6, align 4, !tbaa !11
  %22 = call noundef i32 @_Z15luaL_optintegerP9lua_Stateii(ptr noundef %20, i32 noundef 3, i32 noundef %21)
  %23 = load i64, ptr %3, align 8, !tbaa !13
  %24 = call noundef i32 @_ZL10u_posrelatim(i32 noundef %22, i64 noundef %23)
  store i32 %24, ptr %6, align 4, !tbaa !11
  %25 = load i32, ptr %6, align 4, !tbaa !11
  %26 = icmp sle i32 1, %25
  br i1 %26, label %27, label %34

27:                                               ; preds = %18
  %28 = load i32, ptr %6, align 4, !tbaa !11
  %29 = add nsw i32 %28, -1
  store i32 %29, ptr %6, align 4, !tbaa !11
  %30 = load i64, ptr %3, align 8, !tbaa !13
  %31 = trunc i64 %30 to i32
  %32 = icmp sle i32 %29, %31
  br i1 %32, label %33, label %34

33:                                               ; preds = %27
  br label %37

34:                                               ; preds = %27, %18
  %35 = load ptr, ptr %2, align 8, !tbaa !4
  call void @_Z14luaL_argerrorLP9lua_StateiPKc(ptr noundef %35, i32 noundef 3, ptr noundef @.str.8) #6
  unreachable

36:                                               ; No predecessors!
  br label %37

37:                                               ; preds = %36, %33
  %38 = load i32, ptr %5, align 4, !tbaa !11
  %39 = icmp eq i32 %38, 0
  br i1 %39, label %40, label %59

40:                                               ; preds = %37
  br label %41

41:                                               ; preds = %55, %40
  %42 = load i32, ptr %6, align 4, !tbaa !11
  %43 = icmp sgt i32 %42, 0
  br i1 %43, label %44, label %53

44:                                               ; preds = %41
  %45 = load ptr, ptr %4, align 8, !tbaa !9
  %46 = load i32, ptr %6, align 4, !tbaa !11
  %47 = sext i32 %46 to i64
  %48 = getelementptr inbounds i8, ptr %45, i64 %47
  %49 = load i8, ptr %48, align 1, !tbaa !15
  %50 = sext i8 %49 to i32
  %51 = and i32 %50, 192
  %52 = icmp eq i32 %51, 128
  br label %53

53:                                               ; preds = %44, %41
  %54 = phi i1 [ false, %41 ], [ %52, %44 ]
  br i1 %54, label %55, label %58

55:                                               ; preds = %53
  %56 = load i32, ptr %6, align 4, !tbaa !11
  %57 = add nsw i32 %56, -1
  store i32 %57, ptr %6, align 4, !tbaa !11
  br label %41, !llvm.loop !16

58:                                               ; preds = %53
  br label %135

59:                                               ; preds = %37
  %60 = load ptr, ptr %4, align 8, !tbaa !9
  %61 = load i32, ptr %6, align 4, !tbaa !11
  %62 = sext i32 %61 to i64
  %63 = getelementptr inbounds i8, ptr %60, i64 %62
  %64 = load i8, ptr %63, align 1, !tbaa !15
  %65 = sext i8 %64 to i32
  %66 = and i32 %65, 192
  %67 = icmp eq i32 %66, 128
  br i1 %67, label %68, label %70

68:                                               ; preds = %59
  %69 = load ptr, ptr %2, align 8, !tbaa !4
  call void (ptr, ptr, ...) @_Z11luaL_errorLP9lua_StatePKcz(ptr noundef %69, ptr noundef @.str.9) #6
  unreachable

70:                                               ; preds = %59
  %71 = load i32, ptr %5, align 4, !tbaa !11
  %72 = icmp slt i32 %71, 0
  br i1 %72, label %73, label %104

73:                                               ; preds = %70
  br label %74

74:                                               ; preds = %100, %73
  %75 = load i32, ptr %5, align 4, !tbaa !11
  %76 = icmp slt i32 %75, 0
  br i1 %76, label %77, label %80

77:                                               ; preds = %74
  %78 = load i32, ptr %6, align 4, !tbaa !11
  %79 = icmp sgt i32 %78, 0
  br label %80

80:                                               ; preds = %77, %74
  %81 = phi i1 [ false, %74 ], [ %79, %77 ]
  br i1 %81, label %82, label %103

82:                                               ; preds = %80
  br label %83

83:                                               ; preds = %98, %82
  %84 = load i32, ptr %6, align 4, !tbaa !11
  %85 = add nsw i32 %84, -1
  store i32 %85, ptr %6, align 4, !tbaa !11
  br label %86

86:                                               ; preds = %83
  %87 = load i32, ptr %6, align 4, !tbaa !11
  %88 = icmp sgt i32 %87, 0
  br i1 %88, label %89, label %98

89:                                               ; preds = %86
  %90 = load ptr, ptr %4, align 8, !tbaa !9
  %91 = load i32, ptr %6, align 4, !tbaa !11
  %92 = sext i32 %91 to i64
  %93 = getelementptr inbounds i8, ptr %90, i64 %92
  %94 = load i8, ptr %93, align 1, !tbaa !15
  %95 = sext i8 %94 to i32
  %96 = and i32 %95, 192
  %97 = icmp eq i32 %96, 128
  br label %98

98:                                               ; preds = %89, %86
  %99 = phi i1 [ false, %86 ], [ %97, %89 ]
  br i1 %99, label %83, label %100, !llvm.loop !18

100:                                              ; preds = %98
  %101 = load i32, ptr %5, align 4, !tbaa !11
  %102 = add nsw i32 %101, 1
  store i32 %102, ptr %5, align 4, !tbaa !11
  br label %74, !llvm.loop !19

103:                                              ; preds = %80
  br label %134

104:                                              ; preds = %70
  %105 = load i32, ptr %5, align 4, !tbaa !11
  %106 = add nsw i32 %105, -1
  store i32 %106, ptr %5, align 4, !tbaa !11
  br label %107

107:                                              ; preds = %130, %104
  %108 = load i32, ptr %5, align 4, !tbaa !11
  %109 = icmp sgt i32 %108, 0
  br i1 %109, label %110, label %115

110:                                              ; preds = %107
  %111 = load i32, ptr %6, align 4, !tbaa !11
  %112 = load i64, ptr %3, align 8, !tbaa !13
  %113 = trunc i64 %112 to i32
  %114 = icmp slt i32 %111, %113
  br label %115

115:                                              ; preds = %110, %107
  %116 = phi i1 [ false, %107 ], [ %114, %110 ]
  br i1 %116, label %117, label %133

117:                                              ; preds = %115
  br label %118

118:                                              ; preds = %121, %117
  %119 = load i32, ptr %6, align 4, !tbaa !11
  %120 = add nsw i32 %119, 1
  store i32 %120, ptr %6, align 4, !tbaa !11
  br label %121

121:                                              ; preds = %118
  %122 = load ptr, ptr %4, align 8, !tbaa !9
  %123 = load i32, ptr %6, align 4, !tbaa !11
  %124 = sext i32 %123 to i64
  %125 = getelementptr inbounds i8, ptr %122, i64 %124
  %126 = load i8, ptr %125, align 1, !tbaa !15
  %127 = sext i8 %126 to i32
  %128 = and i32 %127, 192
  %129 = icmp eq i32 %128, 128
  br i1 %129, label %118, label %130, !llvm.loop !20

130:                                              ; preds = %121
  %131 = load i32, ptr %5, align 4, !tbaa !11
  %132 = add nsw i32 %131, -1
  store i32 %132, ptr %5, align 4, !tbaa !11
  br label %107, !llvm.loop !21

133:                                              ; preds = %115
  br label %134

134:                                              ; preds = %133, %103
  br label %135

135:                                              ; preds = %134, %58
  %136 = load i32, ptr %5, align 4, !tbaa !11
  %137 = icmp eq i32 %136, 0
  br i1 %137, label %138, label %142

138:                                              ; preds = %135
  %139 = load ptr, ptr %2, align 8, !tbaa !4
  %140 = load i32, ptr %6, align 4, !tbaa !11
  %141 = add nsw i32 %140, 1
  call void @_Z15lua_pushintegerP9lua_Statei(ptr noundef %139, i32 noundef %141)
  br label %144

142:                                              ; preds = %135
  %143 = load ptr, ptr %2, align 8, !tbaa !4
  call void @_Z11lua_pushnilP9lua_State(ptr noundef %143)
  br label %144

144:                                              ; preds = %142, %138
  call void @llvm.lifetime.end.p0(i64 4, ptr %6) #5
  call void @llvm.lifetime.end.p0(i64 4, ptr %5) #5
  call void @llvm.lifetime.end.p0(i64 8, ptr %4) #5
  call void @llvm.lifetime.end.p0(i64 8, ptr %3) #5
  ret i32 1
}