; Function Attrs: mustprogress uwtable
define internal noundef i32 @_ZL10byteoffsetP9lua_State(ptr noundef %0) #0 {
  %2 = alloca i64, align 8
  call void @llvm.lifetime.start.p0(i64 8, ptr nonnull %2) #4
  %3 = call noundef ptr @_Z17luaL_checklstringP9lua_StateiPm(ptr noundef %0, i32 noundef 1, ptr noundef nonnull %2)
  %4 = call noundef i32 @_Z17luaL_checkintegerP9lua_Statei(ptr noundef %0, i32 noundef 2)
  %5 = icmp sgt i32 %4, -1
  %6 = load i64, ptr %2, align 8
  %7 = trunc i64 %6 to i32
  %8 = add nsw i32 %7, 1
  %9 = select i1 %5, i32 1, i32 %8
  %10 = call noundef i32 @_Z15luaL_optintegerP9lua_Stateii(ptr noundef %0, i32 noundef 3, i32 noundef %9)
  %11 = load i64, ptr %2, align 8, !tbaa !4
  %12 = icmp sgt i32 %10, -1
  br i1 %12, label %_ZL10u_posrelatim.exit, label %13

13:                                               ; preds = %1
  %14 = sext i32 %10 to i64
  %15 = sub nsw i64 0, %14
  %16 = icmp ult i64 %11, %15
  br i1 %16, label %_ZL10u_posrelatim.exit.thread, label %17

17:                                               ; preds = %13
  %18 = trunc i64 %11 to i32
  %19 = add nsw i32 %10, 1
  %20 = add i32 %19, %18
  br label %_ZL10u_posrelatim.exit

_ZL10u_posrelatim.exit:                           ; preds = %1, %17
  %.0.i = phi i32 [ %20, %17 ], [ %10, %1 ]
  %21 = icmp sgt i32 %.0.i, 0
  br i1 %21, label %22, label %_ZL10u_posrelatim.exit.thread

22:                                               ; preds = %_ZL10u_posrelatim.exit
  %23 = add nsw i32 %.0.i, -1
  %24 = trunc i64 %11 to i32
  %.not = icmp sgt i32 %23, %24
  br i1 %.not, label %_ZL10u_posrelatim.exit.thread, label %25

_ZL10u_posrelatim.exit.thread:                    ; preds = %13, %22, %_ZL10u_posrelatim.exit
  call void @_Z14luaL_argerrorLP9lua_StateiPKc(ptr noundef %0, i32 noundef 3, ptr noundef nonnull @.str.8) #5
  unreachable

25:                                               ; preds = %22
  %26 = icmp eq i32 %4, 0
  br i1 %26, label %.preheader, label %34

.preheader:                                       ; preds = %25
  %.not64 = icmp eq i32 %.0.i, 1
  br i1 %.not64, label %.critedge.thread, label %.lr.ph

.lr.ph:                                           ; preds = %.preheader, %31
  %.059 = phi i32 [ %32, %31 ], [ %23, %.preheader ]
  %27 = zext nneg i32 %.059 to i64
  %28 = getelementptr inbounds nuw i8, ptr %3, i64 %27
  %29 = load i8, ptr %28, align 1, !tbaa !8
  %30 = icmp slt i8 %29, -64
  br i1 %30, label %31, label %.critedge.thread

31:                                               ; preds = %.lr.ph
  %32 = add nsw i32 %.059, -1
  %33 = icmp sgt i32 %.059, 1
  br i1 %33, label %.lr.ph, label %.critedge.thread, !llvm.loop !9

34:                                               ; preds = %25
  %35 = zext nneg i32 %23 to i64
  %36 = getelementptr inbounds nuw i8, ptr %3, i64 %35
  %37 = load i8, ptr %36, align 1, !tbaa !8
  %38 = icmp slt i8 %37, -64
  br i1 %38, label %39, label %40

39:                                               ; preds = %34
  call void (ptr, ptr, ...) @_Z11luaL_errorLP9lua_StatePKcz(ptr noundef %0, ptr noundef nonnull @.str.9) #5
  unreachable

40:                                               ; preds = %34
  %41 = icmp slt i32 %4, 0
  br i1 %41, label %.preheader45, label %.preheader48

.preheader48:                                     ; preds = %40
  %.23851 = add nsw i32 %4, -1
  %42 = icmp ne i32 %4, 1
  %43 = icmp samesign ule i32 %.0.i, %24
  %44 = and i1 %42, %43
  br i1 %44, label %.preheader47, label %.critedge

.preheader45:                                     ; preds = %40
  %.not63 = icmp eq i32 %23, 0
  br i1 %.not63, label %.critedge.thread77, label %.preheader44

.preheader44:                                     ; preds = %.preheader45, %.critedge2
  %.256 = phi i32 [ %.lcssa, %.critedge2 ], [ %23, %.preheader45 ]
  %.13755 = phi i32 [ %53, %.critedge2 ], [ %4, %.preheader45 ]
  %45 = zext i32 %.256 to i64
  br label %46

46:                                               ; preds = %.preheader44, %48
  %indvars.iv70 = phi i64 [ %45, %.preheader44 ], [ %indvars.iv.next71, %48 ]
  %47 = icmp samesign ugt i64 %indvars.iv70, 1
  br i1 %47, label %48, label %.critedge2

48:                                               ; preds = %46
  %indvars.iv.next71 = add nsw i64 %indvars.iv70, -1
  %49 = and i64 %indvars.iv.next71, 4294967295
  %50 = getelementptr inbounds nuw i8, ptr %3, i64 %49
  %51 = load i8, ptr %50, align 1, !tbaa !8
  %52 = icmp slt i8 %51, -64
  br i1 %52, label %46, label %.critedge2.split.loop.exit83, !llvm.loop !11

.critedge2.split.loop.exit83:                     ; preds = %48
  %indvars.le = trunc i64 %indvars.iv.next71 to i32
  br label %.critedge2

.critedge2:                                       ; preds = %46, %.critedge2.split.loop.exit83
  %.lcssa = phi i32 [ %indvars.le, %.critedge2.split.loop.exit83 ], [ 0, %46 ]
  %53 = add nsw i32 %.13755, 1
  %54 = icmp slt i32 %.13755, -1
  %55 = icmp ne i32 %.lcssa, 0
  %56 = and i1 %54, %55
  br i1 %56, label %.preheader44, label %.critedge, !llvm.loop !12

.preheader47:                                     ; preds = %.preheader48, %62
  %.23853 = phi i32 [ %.238, %62 ], [ %.23851, %.preheader48 ]
  %.452 = phi i32 [ %63, %62 ], [ %23, %.preheader48 ]
  %57 = zext i32 %.452 to i64
  br label %58

58:                                               ; preds = %.preheader47, %58
  %indvars.iv = phi i64 [ %57, %.preheader47 ], [ %indvars.iv.next, %58 ]
  %indvars.iv.next = add nuw nsw i64 %indvars.iv, 1
  %59 = getelementptr inbounds nuw i8, ptr %3, i64 %indvars.iv.next
  %60 = load i8, ptr %59, align 1, !tbaa !8
  %61 = icmp slt i8 %60, -64
  br i1 %61, label %58, label %62, !llvm.loop !13

62:                                               ; preds = %58
  %63 = trunc nuw i64 %indvars.iv.next to i32
  %.238 = add nsw i32 %.23853, -1
  %64 = icmp samesign ugt i32 %.23853, 1
  %65 = icmp slt i32 %63, %24
  %66 = and i1 %64, %65
  br i1 %66, label %.preheader47, label %.critedge, !llvm.loop !14

.critedge:                                        ; preds = %62, %.critedge2, %.preheader48
  %.036 = phi i32 [ %.23851, %.preheader48 ], [ %53, %.critedge2 ], [ %.238, %62 ]
  %.1 = phi i32 [ %23, %.preheader48 ], [ %.lcssa, %.critedge2 ], [ %63, %62 ]
  %67 = icmp eq i32 %.036, 0
  br i1 %67, label %.critedge.thread, label %.critedge.thread77

.critedge.thread:                                 ; preds = %31, %.lr.ph, %.preheader, %.critedge
  %.176 = phi i32 [ %.1, %.critedge ], [ 0, %.preheader ], [ 0, %31 ], [ %.059, %.lr.ph ]
  %68 = add nuw nsw i32 %.176, 1
  call void @_Z15lua_pushintegerP9lua_Statei(ptr noundef %0, i32 noundef %68)
  br label %69

.critedge.thread77:                               ; preds = %.preheader45, %.critedge
  call void @_Z11lua_pushnilP9lua_State(ptr noundef %0)
  br label %69

69:                                               ; preds = %.critedge.thread77, %.critedge.thread
  call void @llvm.lifetime.end.p0(i64 8, ptr nonnull %2) #4
  ret i32 1
}